target datalayout = "e-m:e-p270:32:32-p271:32:32-p272:64:64-i64:64-i128:128-f80:128-n8:16:32:64-S128"
target triple = "x86_64-pc-linux-gnu"

%struct.AVTaskCallbacks = type { ptr, i32, ptr, ptr, ptr }
%struct.AVExecutor = type { %struct.AVTaskCallbacks, i32, i8, ptr, ptr, %union.pthread_mutex_t, %union.pthread_cond_t, i32, ptr }
%union.pthread_mutex_t = type { %struct.__pthread_mutex_s }
%struct.__pthread_mutex_s = type { i32, i32, i32, i32, i32, i16, i16, %struct.__pthread_internal_list }
%struct.__pthread_internal_list = type { ptr, ptr }
%union.pthread_cond_t = type { %struct.__pthread_cond_s }
%struct.__pthread_cond_s = type { %union.__atomic_wide_counter, %union.__atomic_wide_counter, [2 x i32], [2 x i32], i32, i32, [2 x i32] }
%union.__atomic_wide_counter = type { i64 }

; Function Attrs: nounwind uwtable
define void @av_executor_free(ptr noundef %0) #0 {
  %2 = alloca ptr, align 8
  %3 = alloca i32, align 4
  %4 = alloca i32, align 4
  store ptr %0, ptr %2, align 8, !tbaa !38
  call void @llvm.lifetime.start.p0(i64 4, ptr %3) #5
  %5 = load ptr, ptr %2, align 8, !tbaa !38
  %6 = icmp ne ptr %5, null
  br i1 %6, label %7, label %11

7:                                                ; preds = %1
  %8 = load ptr, ptr %2, align 8, !tbaa !38
  %9 = load ptr, ptr %8, align 8, !tbaa !16
  %10 = icmp ne ptr %9, null
  br i1 %10, label %12, label %11

11:                                               ; preds = %7, %1
  store i32 1, ptr %4, align 4
  br label %22

12:                                               ; preds = %7
  %13 = load ptr, ptr %2, align 8, !tbaa !38
  %14 = load ptr, ptr %13, align 8, !tbaa !16
  %15 = getelementptr inbounds nuw %struct.AVExecutor, ptr %14, i32 0, i32 1
  %16 = load i32, ptr %15, align 8, !tbaa !28
  store i32 %16, ptr %3, align 4, !tbaa !9
  %17 = load ptr, ptr %2, align 8, !tbaa !38
  %18 = load ptr, ptr %17, align 8, !tbaa !16
  %19 = load i32, ptr %3, align 4, !tbaa !9
  %20 = load i32, ptr %3, align 4, !tbaa !9
  call void @executor_free(ptr noundef %18, i32 noundef %19, i32 noundef %20)
  %21 = load ptr, ptr %2, align 8, !tbaa !38
  store ptr null, ptr %21, align 8, !tbaa !16
  store i32 0, ptr %4, align 4
  br label %22

22:                                               ; preds = %12, %11
  call void @llvm.lifetime.end.p0(i64 4, ptr %3) #5
  %23 = load i32, ptr %4, align 4
  switch i32 %23, label %25 [
    i32 0, label %24
    i32 1, label %24
  ]

24:                                               ; preds = %22, %22
  ret void

25:                                               ; preds = %22
  unreachable
}