; Function Attrs: nounwind uwtable
define void @av_executor_free(ptr noundef captures(address_is_null) %0) local_unnamed_addr #0 {
  %.not = icmp eq ptr %0, null
  br i1 %.not, label %7, label %2

2:                                                ; preds = %1
  %3 = load ptr, ptr %0, align 8, !tbaa !38
  %.not7 = icmp eq ptr %3, null
  br i1 %.not7, label %7, label %4

4:                                                ; preds = %2
  %5 = getelementptr inbounds nuw i8, ptr %3, i64 40
  %6 = load i32, ptr %5, align 8, !tbaa !24
  tail call fastcc void @executor_free(ptr noundef %3, i32 noundef %6, i32 noundef %6)
  store ptr null, ptr %0, align 8, !tbaa !38
  br label %7

7:                                                ; preds = %1, %2, %4
  ret void
}